target datalayout = "e-m:e-p270:32:32-p271:32:32-p272:64:64-i64:64-i128:128-f80:128-n8:16:32:64-S128"
target triple = "x86_64-pc-linux-gnu"

%struct.AVFormatContext = type { ptr, ptr, ptr, ptr, ptr, i32, i32, ptr, i32, ptr, i32, ptr, ptr, i64, i64, i64, i32, i32, i32, i64, i64, ptr, i32, i32, ptr, i32, i32, i32, i32, ptr, i64, i32, i32, %struct.AVIOInterruptCB, i32, i32, i32, i32, i64, i32, i32, i32, i32, i32, i32, i32, i32, i32, i32, i32, i32, i64, i32, i32, i32, i32, i32, ptr, ptr, ptr, ptr, i32, ptr, ptr, ptr, ptr, i32, ptr, ptr, i64, ptr, ptr, ptr, i64 }
%struct.AVIOInterruptCB = type { ptr, ptr }
%struct.AVPacket = type { ptr, i64, i64, ptr, i32, i32, i32, ptr, i32, i64, i64, ptr, ptr, %struct.AVRational }
%struct.AVRational = type { i32, i32 }
%struct.WebpContext = type { ptr, i32, ptr, i32, i32, i32 }

@.str.7 = private unnamed_addr constant [5 x i8] c"RIFF\00", align 1
@.str.8 = private unnamed_addr constant [5 x i8] c"VP8X\00", align 1

; Function Attrs: nounwind uwtable
define internal i32 @is_animated_webp_packet(ptr noundef %0) #0 {
  %2 = alloca i32, align 4
  %3 = alloca ptr, align 8
  %4 = alloca i32, align 4
  %5 = alloca i32, align 4
  %6 = alloca i32, align 4
  store ptr %0, ptr %3, align 8, !tbaa !9
  call void @llvm.lifetime.start.p0(i64 4, ptr %4) #4
  store i32 0, ptr %4, align 4, !tbaa !35
  call void @llvm.lifetime.start.p0(i64 4, ptr %5) #4
  store i32 0, ptr %5, align 4, !tbaa !35
  %7 = load ptr, ptr %3, align 8, !tbaa !9
  %8 = getelementptr inbounds nuw %struct.AVPacket, ptr %7, i32 0, i32 4
  %9 = load i32, ptr %8, align 8, !tbaa !30
  %10 = icmp slt i32 %9, 4
  br i1 %10, label %11, label %12

11:                                               ; preds = %1
  store i32 -1094995529, ptr %2, align 4
  store i32 1, ptr %6, align 4
  br label %57

12:                                               ; preds = %1
  %13 = load ptr, ptr %3, align 8, !tbaa !9
  %14 = getelementptr inbounds nuw %struct.AVPacket, ptr %13, i32 0, i32 3
  %15 = load ptr, ptr %14, align 8, !tbaa !39
  %16 = load i32, ptr %15, align 1, !tbaa !52
  %17 = load i32, ptr @.str.7, align 1, !tbaa !52
  %18 = icmp eq i32 %16, %17
  br i1 %18, label %19, label %20

19:                                               ; preds = %12
  store i32 12, ptr %4, align 4, !tbaa !35
  br label %20

20:                                               ; preds = %19, %12
  %21 = load ptr, ptr %3, align 8, !tbaa !9
  %22 = getelementptr inbounds nuw %struct.AVPacket, ptr %21, i32 0, i32 4
  %23 = load i32, ptr %22, align 8, !tbaa !30
  %24 = load i32, ptr %4, align 4, !tbaa !35
  %25 = add nsw i32 %24, 4
  %26 = icmp slt i32 %23, %25
  br i1 %26, label %27, label %28

27:                                               ; preds = %20
  store i32 -1094995529, ptr %2, align 4
  store i32 1, ptr %6, align 4
  br label %57

28:                                               ; preds = %20
  %29 = load ptr, ptr %3, align 8, !tbaa !9
  %30 = getelementptr inbounds nuw %struct.AVPacket, ptr %29, i32 0, i32 3
  %31 = load ptr, ptr %30, align 8, !tbaa !39
  %32 = load i32, ptr %4, align 4, !tbaa !35
  %33 = sext i32 %32 to i64
  %34 = getelementptr inbounds i8, ptr %31, i64 %33
  %35 = load i32, ptr %34, align 1, !tbaa !52
  %36 = load i32, ptr @.str.8, align 1, !tbaa !52
  %37 = icmp eq i32 %35, %36
  br i1 %37, label %38, label %51

38:                                               ; preds = %28
  %39 = load ptr, ptr %3, align 8, !tbaa !9
  %40 = getelementptr inbounds nuw %struct.AVPacket, ptr %39, i32 0, i32 3
  %41 = load ptr, ptr %40, align 8, !tbaa !39
  %42 = load i32, ptr %4, align 4, !tbaa !35
  %43 = add nsw i32 %42, 4
  %44 = add nsw i32 %43, 4
  %45 = sext i32 %44 to i64
  %46 = getelementptr inbounds i8, ptr %41, i64 %45
  %47 = load i8, ptr %46, align 1, !tbaa !52
  %48 = zext i8 %47 to i32
  %49 = load i32, ptr %5, align 4, !tbaa !35
  %50 = or i32 %49, %48
  store i32 %50, ptr %5, align 4, !tbaa !35
  br label %51

51:                                               ; preds = %38, %28
  %52 = load i32, ptr %5, align 4, !tbaa !35
  %53 = and i32 %52, 2
  %54 = icmp ne i32 %53, 0
  br i1 %54, label %55, label %56

55:                                               ; preds = %51
  store i32 1, ptr %2, align 4
  store i32 1, ptr %6, align 4
  br label %57

56:                                               ; preds = %51
  store i32 0, ptr %2, align 4
  store i32 1, ptr %6, align 4
  br label %57

57:                                               ; preds = %56, %55, %27, %11
  call void @llvm.lifetime.end.p0(i64 4, ptr %5) #4
  call void @llvm.lifetime.end.p0(i64 4, ptr %4) #4
  %58 = load i32, ptr %2, align 4
  ret i32 %58
}

; Function Attrs: nounwind uwtable
define internal i32 @webp_write_packet(ptr noundef %0, ptr noundef %1) #0 {
  %3 = alloca i32, align 4
  %4 = alloca ptr, align 8
  %5 = alloca ptr, align 8
  %6 = alloca ptr, align 8
  %7 = alloca i32, align 4
  %8 = alloca i32, align 4
  %9 = alloca i32, align 4
  store ptr %0, ptr %4, align 8, !tbaa !4
  store ptr %1, ptr %5, align 8, !tbaa !9
  call void @llvm.lifetime.start.p0(i64 8, ptr %6) #4
  %10 = load ptr, ptr %4, align 8, !tbaa !4
  %11 = getelementptr inbounds nuw %struct.AVFormatContext, ptr %10, i32 0, i32 3
  %12 = load ptr, ptr %11, align 8, !tbaa !11
  store ptr %12, ptr %6, align 8, !tbaa !28
  call void @llvm.lifetime.start.p0(i64 4, ptr %7) #4
  %13 = load ptr, ptr %5, align 8, !tbaa !9
  %14 = getelementptr inbounds nuw %struct.AVPacket, ptr %13, i32 0, i32 4
  %15 = load i32, ptr %14, align 8, !tbaa !30
  %16 = icmp ne i32 %15, 0
  br i1 %16, label %18, label %17

17:                                               ; preds = %2
  store i32 0, ptr %3, align 4
  store i32 1, ptr %8, align 4
  br label %70

18:                                               ; preds = %2
  %19 = load ptr, ptr %5, align 8, !tbaa !9
  %20 = call i32 @is_animated_webp_packet(ptr noundef %19)
  store i32 %20, ptr %7, align 4, !tbaa !35
  %21 = load i32, ptr %7, align 4, !tbaa !35
  %22 = icmp slt i32 %21, 0
  br i1 %22, label %23, label %25

23:                                               ; preds = %18
  %24 = load i32, ptr %7, align 4, !tbaa !35
  store i32 %24, ptr %3, align 4
  store i32 1, ptr %8, align 4
  br label %70

25:                                               ; preds = %18
  %26 = load i32, ptr %7, align 4, !tbaa !35
  %27 = load ptr, ptr %6, align 8, !tbaa !28
  %28 = getelementptr inbounds nuw %struct.WebpContext, ptr %27, i32 0, i32 5
  %29 = load i32, ptr %28, align 8, !tbaa !36
  %30 = or i32 %29, %26
  store i32 %30, ptr %28, align 8, !tbaa !36
  %31 = load ptr, ptr %6, align 8, !tbaa !28
  %32 = getelementptr inbounds nuw %struct.WebpContext, ptr %31, i32 0, i32 5
  %33 = load i32, ptr %32, align 8, !tbaa !36
  %34 = icmp ne i32 %33, 0
  br i1 %34, label %35, label %47

35:                                               ; preds = %25
  %36 = load ptr, ptr %4, align 8, !tbaa !4
  %37 = getelementptr inbounds nuw %struct.AVFormatContext, ptr %36, i32 0, i32 4
  %38 = load ptr, ptr %37, align 8, !tbaa !38
  %39 = load ptr, ptr %5, align 8, !tbaa !9
  %40 = getelementptr inbounds nuw %struct.AVPacket, ptr %39, i32 0, i32 3
  %41 = load ptr, ptr %40, align 8, !tbaa !39
  %42 = load ptr, ptr %5, align 8, !tbaa !9
  %43 = getelementptr inbounds nuw %struct.AVPacket, ptr %42, i32 0, i32 4
  %44 = load i32, ptr %43, align 8, !tbaa !30
  call void @avio_write(ptr noundef %38, ptr noundef %41, i32 noundef %44)
  %45 = load ptr, ptr %6, align 8, !tbaa !28
  %46 = getelementptr inbounds nuw %struct.WebpContext, ptr %45, i32 0, i32 4
  store i32 1, ptr %46, align 4, !tbaa !40
  br label %65

47:                                               ; preds = %25
  call void @llvm.lifetime.start.p0(i64 4, ptr %9) #4
  %48 = load ptr, ptr %4, align 8, !tbaa !4
  %49 = load ptr, ptr %5, align 8, !tbaa !9
  %50 = getelementptr inbounds nuw %struct.AVPacket, ptr %49, i32 0, i32 1
  %51 = load i64, ptr %50, align 8, !tbaa !41
  %52 = call i32 @flush(ptr noundef %48, i32 noundef 0, i64 noundef %51)
  store i32 %52, ptr %9, align 4, !tbaa !35
  %53 = icmp slt i32 %52, 0
  br i1 %53, label %54, label %56

54:                                               ; preds = %47
  %55 = load i32, ptr %9, align 4, !tbaa !35
  store i32 %55, ptr %3, align 4
  store i32 1, ptr %8, align 4
  br label %62

56:                                               ; preds = %47
  %57 = load ptr, ptr %6, align 8, !tbaa !28
  %58 = getelementptr inbounds nuw %struct.WebpContext, ptr %57, i32 0, i32 2
  %59 = load ptr, ptr %58, align 8, !tbaa !42
  %60 = load ptr, ptr %5, align 8, !tbaa !9
  %61 = call i32 @av_packet_ref(ptr noundef %59, ptr noundef %60)
  store i32 0, ptr %8, align 4
  br label %62

62:                                               ; preds = %56, %54
  call void @llvm.lifetime.end.p0(i64 4, ptr %9) #4
  %63 = load i32, ptr %8, align 4
  switch i32 %63, label %70 [
    i32 0, label %64
  ]

64:                                               ; preds = %62
  br label %65

65:                                               ; preds = %64, %35
  %66 = load ptr, ptr %6, align 8, !tbaa !28
  %67 = getelementptr inbounds nuw %struct.WebpContext, ptr %66, i32 0, i32 1
  %68 = load i32, ptr %67, align 8, !tbaa !43
  %69 = add nsw i32 %68, 1
  store i32 %69, ptr %67, align 8, !tbaa !43
  store i32 0, ptr %3, align 4
  store i32 1, ptr %8, align 4
  br label %70

70:                                               ; preds = %65, %62, %23, %17
  call void @llvm.lifetime.end.p0(i64 4, ptr %7) #4
  call void @llvm.lifetime.end.p0(i64 8, ptr %6) #4
  %71 = load i32, ptr %3, align 4
  ret i32 %71
}