; Function Attrs: nounwind uwtable
define internal range(i32 -1094995529, 1) i32 @webp_write_packet(ptr noundef readonly captures(none) %0, ptr noundef %1) #0 {
  %3 = getelementptr inbounds nuw i8, ptr %0, i64 24
  %4 = load ptr, ptr %3, align 8, !tbaa !4
  %5 = getelementptr inbounds nuw i8, ptr %1, i64 32
  %6 = load i32, ptr %5, align 8, !tbaa !24
  %.not = icmp eq i32 %6, 0
  br i1 %.not, label %is_animated_webp_packet.exit.thread, label %7

7:                                                ; preds = %2
  %8 = icmp slt i32 %6, 4
  br i1 %8, label %is_animated_webp_packet.exit.thread, label %9

9:                                                ; preds = %7
  %10 = getelementptr inbounds nuw i8, ptr %1, i64 24
  %11 = load ptr, ptr %10, align 8, !tbaa !29
  %12 = load i32, ptr %11, align 1, !tbaa !30
  %13 = icmp eq i32 %12, 1179011410
  %spec.select.i = select i1 %13, i32 12, i32 0
  %14 = add nuw nsw i32 %spec.select.i, 4
  %15 = icmp samesign ult i32 %6, %14
  br i1 %15, label %is_animated_webp_packet.exit.thread, label %16

16:                                               ; preds = %9
  %17 = zext nneg i32 %spec.select.i to i64
  %18 = getelementptr inbounds nuw i8, ptr %11, i64 %17
  %19 = load i32, ptr %18, align 1, !tbaa !30
  %20 = icmp eq i32 %19, 1480085590
  br i1 %20, label %21, label %.thread.i

21:                                               ; preds = %16
  %22 = getelementptr inbounds nuw i8, ptr %18, i64 8
  %23 = load i8, ptr %22, align 1, !tbaa !30
  %.fr15.i = freeze i8 %23
  %24 = and i8 %.fr15.i, 2
  %25 = icmp eq i8 %24, 0
  br i1 %25, label %.thread.i, label %is_animated_webp_packet.exit

.thread.i:                                        ; preds = %21, %16
  br label %is_animated_webp_packet.exit

is_animated_webp_packet.exit:                     ; preds = %.thread.i, %21
  %.011.i = phi i32 [ 0, %.thread.i ], [ 1, %21 ]
  %26 = getelementptr inbounds nuw i8, ptr %4, i64 32
  %27 = load i32, ptr %26, align 8, !tbaa !31
  %28 = or i32 %27, %.011.i
  store i32 %28, ptr %26, align 8, !tbaa !31
  %.not21 = icmp eq i32 %28, 0
  br i1 %.not21, label %33, label %29

29:                                               ; preds = %is_animated_webp_packet.exit
  %30 = getelementptr inbounds nuw i8, ptr %0, i64 32
  %31 = load ptr, ptr %30, align 8, !tbaa !34
  tail call void @avio_write(ptr noundef %31, ptr noundef nonnull %11, i32 noundef %6) #4
  %32 = getelementptr inbounds nuw i8, ptr %4, i64 28
  store i32 1, ptr %32, align 4, !tbaa !35
  br label %40

33:                                               ; preds = %is_animated_webp_packet.exit
  %34 = getelementptr inbounds nuw i8, ptr %1, i64 8
  %35 = load i64, ptr %34, align 8, !tbaa !36
  %36 = tail call fastcc i32 @flush(ptr noundef nonnull %0, i32 noundef 0, i64 noundef %35)
  %37 = getelementptr inbounds nuw i8, ptr %4, i64 16
  %38 = load ptr, ptr %37, align 8, !tbaa !37
  %39 = tail call i32 @av_packet_ref(ptr noundef %38, ptr noundef nonnull %1) #4
  br label %40

40:                                               ; preds = %33, %29
  %41 = getelementptr inbounds nuw i8, ptr %4, i64 8
  %42 = load i32, ptr %41, align 8, !tbaa !38
  %43 = add nsw i32 %42, 1
  store i32 %43, ptr %41, align 8, !tbaa !38
  br label %is_animated_webp_packet.exit.thread

is_animated_webp_packet.exit.thread:              ; preds = %9, %7, %2, %40
  %.0 = phi i32 [ 0, %40 ], [ 0, %2 ], [ -1094995529, %7 ], [ -1094995529, %9 ]
  ret i32 %.0
}